target datalayout = "e-m:e-p270:32:32-p271:32:32-p272:64:64-i64:64-i128:128-f80:128-n8:16:32:64-S128"
target triple = "x86_64-pc-linux-gnu"

%struct.node_record = type { ptr, ptr, i16, i64, i64, ptr, ptr, ptr, i16, ptr, i16, i16, i32, i32, i64, ptr, i16, i16, ptr, ptr, ptr, ptr, ptr, i64, i64, ptr, ptr, ptr, ptr, i32, ptr, ptr, i64, i64, i32, ptr, i64, ptr, i32, i16, ptr, ptr, i32, ptr, i32, i8, ptr, i32, i16, i16, ptr, i16, i64, i16, i64, ptr, i64, i32, i16, i64, i16, ptr, i16, i64, ptr, i64, i16, i32, i16, ptr, ptr, ptr, i16, i32, i16, i16, i32, ptr, i16, i32 }

@.str.107 = private unnamed_addr constant [24 x i8] c"Nodes %s not responding\00", align 1

; Function Attrs: nounwind uwtable
define dso_local void @node_no_resp_msg() #0 {
  %1 = alloca i32, align 4
  %2 = alloca ptr, align 8
  %3 = alloca ptr, align 8
  %4 = alloca ptr, align 8
  call void @llvm.lifetime.start.p0(i64 4, ptr %1) #10
  call void @llvm.lifetime.start.p0(i64 8, ptr %2) #10
  call void @llvm.lifetime.start.p0(i64 8, ptr %3) #10
  store ptr null, ptr %3, align 8
  call void @llvm.lifetime.start.p0(i64 8, ptr %4) #10
  store ptr null, ptr %4, align 8
  store i32 0, ptr %1, align 4
  br label %5

5:                                                ; preds = %52, %0
  %6 = call ptr @next_node(ptr noundef %1)
  store ptr %6, ptr %2, align 8
  %7 = icmp ne ptr %6, null
  br i1 %7, label %8, label %55

8:                                                ; preds = %5
  %9 = load ptr, ptr %2, align 8
  %10 = getelementptr inbounds nuw %struct.node_record, ptr %9, i32 0, i32 45
  %11 = load i8, ptr %10, align 4, !range !11, !noundef !12
  %12 = trunc i8 %11 to i1
  br i1 %12, label %13, label %34

13:                                               ; preds = %8
  %14 = load ptr, ptr %2, align 8
  %15 = getelementptr inbounds nuw %struct.node_record, ptr %14, i32 0, i32 44
  %16 = load i32, ptr %15, align 8
  %17 = zext i32 %16 to i64
  %18 = and i64 %17, 4096
  %19 = icmp ne i64 %18, 0
  br i1 %19, label %34, label %20

20:                                               ; preds = %13
  %21 = load ptr, ptr %2, align 8
  %22 = getelementptr inbounds nuw %struct.node_record, ptr %21, i32 0, i32 44
  %23 = load i32, ptr %22, align 8
  %24 = zext i32 %23 to i64
  %25 = and i64 %24, 262144
  %26 = icmp ne i64 %25, 0
  br i1 %26, label %34, label %27

27:                                               ; preds = %20
  %28 = load ptr, ptr %2, align 8
  %29 = getelementptr inbounds nuw %struct.node_record, ptr %28, i32 0, i32 44
  %30 = load i32, ptr %29, align 8
  %31 = zext i32 %30 to i64
  %32 = and i64 %31, 16384
  %33 = icmp ne i64 %32, 0
  br i1 %33, label %34, label %35

34:                                               ; preds = %27, %20, %13, %8
  br label %52

35:                                               ; preds = %27
  %36 = load ptr, ptr %4, align 8
  %37 = icmp ne ptr %36, null
  br i1 %37, label %38, label %44

38:                                               ; preds = %35
  %39 = load ptr, ptr %4, align 8
  %40 = load ptr, ptr %2, align 8
  %41 = getelementptr inbounds nuw %struct.node_record, ptr %40, i32 0, i32 37
  %42 = load ptr, ptr %41, align 8
  %43 = call i32 @hostlist_push_host(ptr noundef %39, ptr noundef %42)
  br label %49

44:                                               ; preds = %35
  %45 = load ptr, ptr %2, align 8
  %46 = getelementptr inbounds nuw %struct.node_record, ptr %45, i32 0, i32 37
  %47 = load ptr, ptr %46, align 8
  %48 = call ptr @hostlist_create(ptr noundef %47)
  store ptr %48, ptr %4, align 8
  br label %49

49:                                               ; preds = %44, %38
  %50 = load ptr, ptr %2, align 8
  %51 = getelementptr inbounds nuw %struct.node_record, ptr %50, i32 0, i32 45
  store i8 0, ptr %51, align 4
  br label %52

52:                                               ; preds = %49, %34
  %53 = load i32, ptr %1, align 4
  %54 = add nsw i32 %53, 1
  store i32 %54, ptr %1, align 4
  br label %5, !llvm.loop !38

55:                                               ; preds = %5
  %56 = load ptr, ptr %4, align 8
  %57 = icmp ne ptr %56, null
  br i1 %57, label %58, label %65

58:                                               ; preds = %55
  %59 = load ptr, ptr %4, align 8
  call void @hostlist_uniq(ptr noundef %59)
  %60 = load ptr, ptr %4, align 8
  %61 = call ptr @hostlist_ranged_string_xmalloc(ptr noundef %60)
  store ptr %61, ptr %3, align 8
  %62 = load ptr, ptr %3, align 8
  %63 = call i32 (ptr, ...) @error(ptr noundef @.str.107, ptr noundef %62)
  call void @slurm_xfree(ptr noundef %3)
  %64 = load ptr, ptr %4, align 8
  call void @hostlist_destroy(ptr noundef %64)
  br label %65

65:                                               ; preds = %58, %55
  call void @llvm.lifetime.end.p0(i64 8, ptr %4) #10
  call void @llvm.lifetime.end.p0(i64 8, ptr %3) #10
  call void @llvm.lifetime.end.p0(i64 8, ptr %2) #10
  call void @llvm.lifetime.end.p0(i64 4, ptr %1) #10
  ret void
}