; Function Attrs: nounwind uwtable
define dso_local void @node_no_resp_msg() local_unnamed_addr #0 {
  %1 = alloca i32, align 4
  %2 = alloca ptr, align 8
  call void @llvm.lifetime.start.p0(i64 4, ptr nonnull %1) #15
  call void @llvm.lifetime.start.p0(i64 8, ptr nonnull %2) #15
  store ptr null, ptr %2, align 8
  store i32 0, ptr %1, align 4
  %3 = call ptr @next_node(ptr noundef nonnull %1) #15
  %.not20 = icmp eq ptr %3, null
  br i1 %.not20, label %._crit_edge.thread, label %.lr.ph

.lr.ph:                                           ; preds = %0, %20
  %4 = phi ptr [ %23, %20 ], [ %3, %0 ]
  %.021 = phi ptr [ %.1, %20 ], [ null, %0 ]
  %5 = getelementptr inbounds nuw i8, ptr %4, i64 324
  %6 = load i8, ptr %5, align 4, !range !11, !noundef !12
  %7 = trunc nuw i8 %6 to i1
  br i1 %7, label %8, label %20

8:                                                ; preds = %.lr.ph
  %9 = getelementptr inbounds nuw i8, ptr %4, i64 320
  %10 = load i32, ptr %9, align 8
  %11 = and i32 %10, 282624
  %or.cond19 = icmp eq i32 %11, 0
  br i1 %or.cond19, label %12, label %20

12:                                               ; preds = %8
  %.not18 = icmp eq ptr %.021, null
  %13 = getelementptr inbounds nuw i8, ptr %4, i64 272
  %14 = load ptr, ptr %13, align 8
  br i1 %.not18, label %17, label %15

15:                                               ; preds = %12
  %16 = call i32 @hostlist_push_host(ptr noundef nonnull %.021, ptr noundef %14) #15
  br label %19

17:                                               ; preds = %12
  %18 = call ptr @hostlist_create(ptr noundef %14) #15
  br label %19

19:                                               ; preds = %17, %15
  %.2 = phi ptr [ %.021, %15 ], [ %18, %17 ]
  store i8 0, ptr %5, align 4
  br label %20

20:                                               ; preds = %.lr.ph, %8, %19
  %.1 = phi ptr [ %.021, %8 ], [ %.2, %19 ], [ %.021, %.lr.ph ]
  %21 = load i32, ptr %1, align 4
  %22 = add nsw i32 %21, 1
  store i32 %22, ptr %1, align 4
  %23 = call ptr @next_node(ptr noundef nonnull %1) #15
  %.not = icmp eq ptr %23, null
  br i1 %.not, label %._crit_edge, label %.lr.ph, !llvm.loop !37

._crit_edge:                                      ; preds = %20
  %.not14 = icmp eq ptr %.1, null
  br i1 %.not14, label %._crit_edge.thread, label %24

24:                                               ; preds = %._crit_edge
  call void @hostlist_uniq(ptr noundef nonnull %.1) #15
  %25 = call ptr @hostlist_ranged_string_xmalloc(ptr noundef nonnull %.1) #15
  store ptr %25, ptr %2, align 8
  %26 = call i32 (ptr, ...) @error(ptr noundef nonnull @.str.107, ptr noundef %25) #15
  call void @slurm_xfree(ptr noundef nonnull %2) #15
  call void @hostlist_destroy(ptr noundef nonnull %.1) #15
  br label %._crit_edge.thread

._crit_edge.thread:                               ; preds = %0, %24, %._crit_edge
  call void @llvm.lifetime.end.p0(i64 8, ptr nonnull %2) #15
  call void @llvm.lifetime.end.p0(i64 4, ptr nonnull %1) #15
  ret void
}